target datalayout = "e-m:e-p270:32:32-p271:32:32-p272:64:64-i64:64-i128:128-f80:128-n8:16:32:64-S128"
target triple = "x86_64-pc-linux-gnu"

@fixedpoint_d2string.digitsd = internal constant [201 x i8] c"00010203040506070809101112131415161718192021222324252627282930313233343536373839404142434445464748495051525354555657585960616263646566676869707172737475767778798081828384858687888990919293949596979899\00", align 16

; Function Attrs: nounwind uwtable
define dso_local i32 @digits10(i64 noundef %0) #0 {
  %2 = alloca i32, align 4
  %3 = alloca i64, align 8
  store i64 %0, ptr %3, align 8, !tbaa !29
  %4 = load i64, ptr %3, align 8, !tbaa !29
  %5 = icmp ult i64 %4, 10
  br i1 %5, label %6, label %7

6:                                                ; preds = %1
  store i32 1, ptr %2, align 4
  br label %56

7:                                                ; preds = %1
  %8 = load i64, ptr %3, align 8, !tbaa !29
  %9 = icmp ult i64 %8, 100
  br i1 %9, label %10, label %11

10:                                               ; preds = %7
  store i32 2, ptr %2, align 4
  br label %56

11:                                               ; preds = %7
  %12 = load i64, ptr %3, align 8, !tbaa !29
  %13 = icmp ult i64 %12, 1000
  br i1 %13, label %14, label %15

14:                                               ; preds = %11
  store i32 3, ptr %2, align 4
  br label %56

15:                                               ; preds = %11
  %16 = load i64, ptr %3, align 8, !tbaa !29
  %17 = icmp ult i64 %16, 1000000000000
  br i1 %17, label %18, label %51

18:                                               ; preds = %15
  %19 = load i64, ptr %3, align 8, !tbaa !29
  %20 = icmp ult i64 %19, 100000000
  br i1 %20, label %21, label %38

21:                                               ; preds = %18
  %22 = load i64, ptr %3, align 8, !tbaa !29
  %23 = icmp ult i64 %22, 1000000
  br i1 %23, label %24, label %33

24:                                               ; preds = %21
  %25 = load i64, ptr %3, align 8, !tbaa !29
  %26 = icmp ult i64 %25, 10000
  br i1 %26, label %27, label %28

27:                                               ; preds = %24
  store i32 4, ptr %2, align 4
  br label %56

28:                                               ; preds = %24
  %29 = load i64, ptr %3, align 8, !tbaa !29
  %30 = icmp uge i64 %29, 100000
  %31 = zext i1 %30 to i32
  %32 = add nsw i32 5, %31
  store i32 %32, ptr %2, align 4
  br label %56

33:                                               ; preds = %21
  %34 = load i64, ptr %3, align 8, !tbaa !29
  %35 = icmp uge i64 %34, 10000000
  %36 = zext i1 %35 to i32
  %37 = add nsw i32 7, %36
  store i32 %37, ptr %2, align 4
  br label %56

38:                                               ; preds = %18
  %39 = load i64, ptr %3, align 8, !tbaa !29
  %40 = icmp ult i64 %39, 10000000000
  br i1 %40, label %41, label %46

41:                                               ; preds = %38
  %42 = load i64, ptr %3, align 8, !tbaa !29
  %43 = icmp uge i64 %42, 1000000000
  %44 = zext i1 %43 to i32
  %45 = add nsw i32 9, %44
  store i32 %45, ptr %2, align 4
  br label %56

46:                                               ; preds = %38
  %47 = load i64, ptr %3, align 8, !tbaa !29
  %48 = icmp uge i64 %47, 100000000000
  %49 = zext i1 %48 to i32
  %50 = add nsw i32 11, %49
  store i32 %50, ptr %2, align 4
  br label %56

51:                                               ; preds = %15
  %52 = load i64, ptr %3, align 8, !tbaa !29
  %53 = udiv i64 %52, 1000000000000
  %54 = call i32 @digits10(i64 noundef %53)
  %55 = add i32 12, %54
  store i32 %55, ptr %2, align 4
  br label %56

56:                                               ; preds = %51, %46, %41, %33, %28, %27, %14, %10, %6
  %57 = load i32, ptr %2, align 4
  ret i32 %57
}

; Function Attrs: nounwind uwtable
define dso_local i32 @fixedpoint_d2string(ptr noundef %0, i64 noundef %1, double noundef %2, i32 noundef %3) #0 {
  %5 = alloca i32, align 4
  %6 = alloca ptr, align 8
  %7 = alloca i64, align 8
  %8 = alloca double, align 8
  %9 = alloca i32, align 4
  %10 = alloca i64, align 8
  %11 = alloca i64, align 8
  %12 = alloca i32, align 4
  %13 = alloca i32, align 4
  %14 = alloca i32, align 4
  %15 = alloca i32, align 4
  %16 = alloca i32, align 4
  %17 = alloca i32, align 4
  %18 = alloca i32, align 4
  store ptr %0, ptr %6, align 8, !tbaa !5
  store i64 %1, ptr %7, align 8, !tbaa !29
  store double %2, ptr %8, align 8, !tbaa !50
  store i32 %3, ptr %9, align 4, !tbaa !10
  %19 = load i32, ptr %9, align 4, !tbaa !10
  %20 = icmp slt i32 %19, 1
  br i1 %20, label %24, label %21

21:                                               ; preds = %4
  %22 = load i32, ptr %9, align 4, !tbaa !10
  %23 = icmp sgt i32 %22, 17
  br i1 %23, label %24, label %25

24:                                               ; preds = %21, %4
  br label %195

25:                                               ; preds = %21
  %26 = load i64, ptr %7, align 8, !tbaa !29
  %27 = trunc i64 %26 to i32
  %28 = load i32, ptr %9, align 4, !tbaa !10
  %29 = add nsw i32 %28, 3
  %30 = icmp slt i32 %27, %29
  br i1 %30, label %31, label %32

31:                                               ; preds = %25
  br label %195

32:                                               ; preds = %25
  %33 = load double, ptr %8, align 8, !tbaa !50
  %34 = fcmp oeq double %33, 0.000000e+00
  br i1 %34, label %35, label %51

35:                                               ; preds = %32
  %36 = load ptr, ptr %6, align 8, !tbaa !5
  %37 = getelementptr inbounds i8, ptr %36, i64 0
  store i8 48, ptr %37, align 1, !tbaa !12
  %38 = load ptr, ptr %6, align 8, !tbaa !5
  %39 = getelementptr inbounds i8, ptr %38, i64 1
  store i8 46, ptr %39, align 1, !tbaa !12
  %40 = load ptr, ptr %6, align 8, !tbaa !5
  %41 = getelementptr inbounds i8, ptr %40, i64 2
  %42 = load i32, ptr %9, align 4, !tbaa !10
  %43 = sext i32 %42 to i64
  call void @llvm.memset.p0.i64(ptr align 1 %41, i8 48, i64 %43, i1 false)
  %44 = load ptr, ptr %6, align 8, !tbaa !5
  %45 = load i32, ptr %9, align 4, !tbaa !10
  %46 = add nsw i32 %45, 2
  %47 = sext i32 %46 to i64
  %48 = getelementptr inbounds i8, ptr %44, i64 %47
  store i8 0, ptr %48, align 1, !tbaa !12
  %49 = load i32, ptr %9, align 4, !tbaa !10
  %50 = add nsw i32 %49, 2
  store i32 %50, ptr %5, align 4
  br label %202

51:                                               ; preds = %32
  %52 = load double, ptr %8, align 8, !tbaa !50
  %53 = load i32, ptr %9, align 4, !tbaa !10
  %54 = sext i32 %53 to i64
  %55 = getelementptr inbounds [18 x double], ptr @fixedpoint_d2string.powers_of_ten, i64 0, i64 %54
  %56 = load double, ptr %55, align 8, !tbaa !50
  %57 = fmul double %52, %56
  %58 = call i64 @llrint(double noundef %57) #13, !tbaa !10
  store i64 %58, ptr %10, align 8, !tbaa !31
  store i32 0, ptr %12, align 4, !tbaa !10
  %59 = load i64, ptr %10, align 8, !tbaa !31
  %60 = icmp slt i64 %59, 0
  br i1 %60, label %61, label %79

61:                                               ; preds = %51
  %62 = load i64, ptr %10, align 8, !tbaa !31
  %63 = icmp ne i64 %62, -9223372036854775808
  br i1 %63, label %64, label %67

64:                                               ; preds = %61
  %65 = load i64, ptr %10, align 8, !tbaa !31
  %66 = sub nsw i64 0, %65
  store i64 %66, ptr %11, align 8, !tbaa !31
  br label %68

67:                                               ; preds = %61
  store i64 -9223372036854775808, ptr %11, align 8, !tbaa !31
  br label %68

68:                                               ; preds = %67, %64
  %69 = load i64, ptr %7, align 8, !tbaa !29
  %70 = icmp ult i64 %69, 2
  br i1 %70, label %71, label %72

71:                                               ; preds = %68
  br label %195

72:                                               ; preds = %68
  store i32 1, ptr %12, align 4, !tbaa !10
  %73 = load ptr, ptr %6, align 8, !tbaa !5
  %74 = getelementptr inbounds i8, ptr %73, i64 0
  store i8 45, ptr %74, align 1, !tbaa !12
  %75 = load ptr, ptr %6, align 8, !tbaa !5
  %76 = getelementptr inbounds nuw i8, ptr %75, i32 1
  store ptr %76, ptr %6, align 8, !tbaa !5
  %77 = load i64, ptr %7, align 8, !tbaa !29
  %78 = add i64 %77, -1
  store i64 %78, ptr %7, align 8, !tbaa !29
  br label %81

79:                                               ; preds = %51
  %80 = load i64, ptr %10, align 8, !tbaa !31
  store i64 %80, ptr %11, align 8, !tbaa !31
  br label %81

81:                                               ; preds = %79, %72
  %82 = load i64, ptr %11, align 8, !tbaa !31
  %83 = call i32 @digits10(i64 noundef %82)
  store i32 %83, ptr %13, align 4, !tbaa !10
  %84 = load i32, ptr %13, align 4, !tbaa !10
  %85 = zext i32 %84 to i64
  %86 = load i64, ptr %7, align 8, !tbaa !29
  %87 = icmp uge i64 %85, %86
  br i1 %87, label %88, label %89

88:                                               ; preds = %81
  br label %195

89:                                               ; preds = %81
  %90 = load i32, ptr %13, align 4, !tbaa !10
  %91 = load i32, ptr %9, align 4, !tbaa !10
  %92 = sub i32 %90, %91
  store i32 %92, ptr %14, align 4, !tbaa !10
  %93 = load i32, ptr %14, align 4, !tbaa !10
  %94 = icmp slt i32 %93, 1
  br i1 %94, label %95, label %98

95:                                               ; preds = %89
  %96 = load ptr, ptr %6, align 8, !tbaa !5
  %97 = getelementptr inbounds i8, ptr %96, i64 0
  store i8 48, ptr %97, align 1, !tbaa !12
  store i32 1, ptr %14, align 4, !tbaa !10
  br label %98

98:                                               ; preds = %95, %89
  %99 = load ptr, ptr %6, align 8, !tbaa !5
  %100 = load i32, ptr %14, align 4, !tbaa !10
  %101 = sext i32 %100 to i64
  %102 = getelementptr inbounds i8, ptr %99, i64 %101
  store i8 46, ptr %102, align 1, !tbaa !12
  %103 = load i32, ptr %14, align 4, !tbaa !10
  %104 = add nsw i32 %103, 1
  %105 = load i32, ptr %9, align 4, !tbaa !10
  %106 = add nsw i32 %104, %105
  store i32 %106, ptr %15, align 4, !tbaa !10
  %107 = load ptr, ptr %6, align 8, !tbaa !5
  %108 = load i32, ptr %14, align 4, !tbaa !10
  %109 = sext i32 %108 to i64
  %110 = getelementptr inbounds i8, ptr %107, i64 %109
  %111 = getelementptr inbounds i8, ptr %110, i64 1
  %112 = load i32, ptr %9, align 4, !tbaa !10
  %113 = sext i32 %112 to i64
  call void @llvm.memset.p0.i64(ptr align 1 %111, i8 48, i64 %113, i1 false)
  %114 = load i32, ptr %15, align 4, !tbaa !10
  %115 = sub nsw i32 %114, 1
  store i32 %115, ptr %16, align 4, !tbaa !10
  br label %116

116:                                              ; preds = %152, %98
  %117 = load i64, ptr %11, align 8, !tbaa !31
  %118 = icmp uge i64 %117, 100
  br i1 %118, label %119, label %153

119:                                              ; preds = %116
  call void @llvm.lifetime.start.p0(i64 4, ptr %17) #13
  %120 = load i64, ptr %11, align 8, !tbaa !31
  %121 = urem i64 %120, 100
  %122 = mul i64 %121, 2
  %123 = trunc i64 %122 to i32
  store i32 %123, ptr %17, align 4, !tbaa !10
  %124 = load i64, ptr %11, align 8, !tbaa !31
  %125 = udiv i64 %124, 100
  store i64 %125, ptr %11, align 8, !tbaa !31
  %126 = load i32, ptr %17, align 4, !tbaa !10
  %127 = add nsw i32 %126, 1
  %128 = sext i32 %127 to i64
  %129 = getelementptr inbounds [201 x i8], ptr @fixedpoint_d2string.digitsd, i64 0, i64 %128
  %130 = load i8, ptr %129, align 1, !tbaa !12
  %131 = load ptr, ptr %6, align 8, !tbaa !5
  %132 = load i32, ptr %16, align 4, !tbaa !10
  %133 = sext i32 %132 to i64
  %134 = getelementptr inbounds i8, ptr %131, i64 %133
  store i8 %130, ptr %134, align 1, !tbaa !12
  %135 = load i32, ptr %17, align 4, !tbaa !10
  %136 = sext i32 %135 to i64
  %137 = getelementptr inbounds [201 x i8], ptr @fixedpoint_d2string.digitsd, i64 0, i64 %136
  %138 = load i8, ptr %137, align 1, !tbaa !12
  %139 = load ptr, ptr %6, align 8, !tbaa !5
  %140 = load i32, ptr %16, align 4, !tbaa !10
  %141 = sub nsw i32 %140, 1
  %142 = sext i32 %141 to i64
  %143 = getelementptr inbounds i8, ptr %139, i64 %142
  store i8 %138, ptr %143, align 1, !tbaa !12
  %144 = load i32, ptr %16, align 4, !tbaa !10
  %145 = sub nsw i32 %144, 2
  store i32 %145, ptr %16, align 4, !tbaa !10
  %146 = load i32, ptr %16, align 4, !tbaa !10
  %147 = load i32, ptr %14, align 4, !tbaa !10
  %148 = icmp eq i32 %146, %147
  br i1 %148, label %149, label %152

149:                                              ; preds = %119
  %150 = load i32, ptr %16, align 4, !tbaa !10
  %151 = add nsw i32 %150, -1
  store i32 %151, ptr %16, align 4, !tbaa !10
  br label %152

152:                                              ; preds = %149, %119
  call void @llvm.lifetime.end.p0(i64 4, ptr %17) #13
  br label %116, !llvm.loop !52

153:                                              ; preds = %116
  %154 = load i64, ptr %11, align 8, !tbaa !31
  %155 = icmp ult i64 %154, 10
  br i1 %155, label %156, label %165

156:                                              ; preds = %153
  %157 = load i64, ptr %11, align 8, !tbaa !31
  %158 = trunc i64 %157 to i32
  %159 = add i32 48, %158
  %160 = trunc i32 %159 to i8
  %161 = load ptr, ptr %6, align 8, !tbaa !5
  %162 = load i32, ptr %16, align 4, !tbaa !10
  %163 = sext i32 %162 to i64
  %164 = getelementptr inbounds i8, ptr %161, i64 %163
  store i8 %160, ptr %164, align 1, !tbaa !12
  br label %187

165:                                              ; preds = %153
  call void @llvm.lifetime.start.p0(i64 4, ptr %18) #13
  %166 = load i64, ptr %11, align 8, !tbaa !31
  %167 = trunc i64 %166 to i32
  %168 = mul i32 %167, 2
  store i32 %168, ptr %18, align 4, !tbaa !10
  %169 = load i32, ptr %18, align 4, !tbaa !10
  %170 = add nsw i32 %169, 1
  %171 = sext i32 %170 to i64
  %172 = getelementptr inbounds [201 x i8], ptr @fixedpoint_d2string.digitsd, i64 0, i64 %171
  %173 = load i8, ptr %172, align 1, !tbaa !12
  %174 = load ptr, ptr %6, align 8, !tbaa !5
  %175 = load i32, ptr %16, align 4, !tbaa !10
  %176 = sext i32 %175 to i64
  %177 = getelementptr inbounds i8, ptr %174, i64 %176
  store i8 %173, ptr %177, align 1, !tbaa !12
  %178 = load i32, ptr %18, align 4, !tbaa !10
  %179 = sext i32 %178 to i64
  %180 = getelementptr inbounds [201 x i8], ptr @fixedpoint_d2string.digitsd, i64 0, i64 %179
  %181 = load i8, ptr %180, align 1, !tbaa !12
  %182 = load ptr, ptr %6, align 8, !tbaa !5
  %183 = load i32, ptr %16, align 4, !tbaa !10
  %184 = sub nsw i32 %183, 1
  %185 = sext i32 %184 to i64
  %186 = getelementptr inbounds i8, ptr %182, i64 %185
  store i8 %181, ptr %186, align 1, !tbaa !12
  call void @llvm.lifetime.end.p0(i64 4, ptr %18) #13
  br label %187

187:                                              ; preds = %165, %156
  %188 = load ptr, ptr %6, align 8, !tbaa !5
  %189 = load i32, ptr %15, align 4, !tbaa !10
  %190 = sext i32 %189 to i64
  %191 = getelementptr inbounds i8, ptr %188, i64 %190
  store i8 0, ptr %191, align 1, !tbaa !12
  %192 = load i32, ptr %15, align 4, !tbaa !10
  %193 = load i32, ptr %12, align 4, !tbaa !10
  %194 = add nsw i32 %192, %193
  store i32 %194, ptr %5, align 4
  br label %202

195:                                              ; preds = %88, %71, %31, %24
  %196 = load i64, ptr %7, align 8, !tbaa !29
  %197 = icmp ugt i64 %196, 0
  br i1 %197, label %198, label %201

198:                                              ; preds = %195
  %199 = load ptr, ptr %6, align 8, !tbaa !5
  %200 = getelementptr inbounds i8, ptr %199, i64 0
  store i8 0, ptr %200, align 1, !tbaa !12
  br label %201

201:                                              ; preds = %198, %195
  store i32 0, ptr %5, align 4
  br label %202

202:                                              ; preds = %201, %187, %35
  %203 = load i32, ptr %5, align 4
  ret i32 %203
}