; Function Attrs: nounwind uwtable
define dso_local range(i32 0, -2147483648) i32 @fixedpoint_d2string(ptr noundef writeonly captures(none) %0, i64 noundef %1, double noundef %2, i32 noundef %3) local_unnamed_addr #4 {
  %5 = add i32 %3, -18
  %or.cond = icmp ult i32 %5, -17
  %6 = trunc i64 %1 to i32
  %7 = add nuw nsw i32 %3, 3
  %8 = icmp sgt i32 %7, %6
  %or.cond90 = select i1 %or.cond, i1 true, i1 %8
  br i1 %or.cond90, label %114, label %9

9:                                                ; preds = %4
  %10 = fcmp oeq double %2, 0.000000e+00
  br i1 %10, label %11, label %18

11:                                               ; preds = %9
  store i8 48, ptr %0, align 1, !tbaa !9
  %12 = getelementptr inbounds nuw i8, ptr %0, i64 1
  store i8 46, ptr %12, align 1, !tbaa !9
  %13 = getelementptr inbounds nuw i8, ptr %0, i64 2
  %14 = zext nneg i32 %3 to i64
  tail call void @llvm.memset.p0.i64(ptr nonnull align 1 %13, i8 48, i64 %14, i1 false)
  %15 = add nuw nsw i32 %3, 2
  %16 = zext nneg i32 %15 to i64
  %17 = getelementptr inbounds nuw i8, ptr %0, i64 %16
  store i8 0, ptr %17, align 1, !tbaa !9
  br label %116

18:                                               ; preds = %9
  %19 = zext nneg i32 %3 to i64
  %20 = getelementptr inbounds nuw [18 x double], ptr @fixedpoint_d2string.powers_of_ten, i64 0, i64 %19
  %21 = load double, ptr %20, align 8, !tbaa !42
  %22 = fmul double %2, %21
  %23 = tail call i64 @llrint(double noundef %22) #29, !tbaa !5
  %24 = icmp slt i64 %23, 0
  br i1 %24, label %25, label %31

25:                                               ; preds = %18
  %26 = icmp ult i64 %1, 2
  br i1 %26, label %114, label %27

27:                                               ; preds = %25
  %28 = sub i64 0, %23
  store i8 45, ptr %0, align 1, !tbaa !9
  %29 = getelementptr inbounds nuw i8, ptr %0, i64 1
  %30 = add i64 %1, -1
  br label %31

31:                                               ; preds = %18, %27
  %.076 = phi i32 [ 1, %27 ], [ 0, %18 ]
  %.175 = phi i64 [ %28, %27 ], [ %23, %18 ]
  %.172 = phi i64 [ %30, %27 ], [ %1, %18 ]
  %.1 = phi ptr [ %29, %27 ], [ %0, %18 ]
  %32 = icmp ult i64 %.175, 10
  br i1 %32, label %digits10.exit, label %.lr.ph.i

.lr.ph.i:                                         ; preds = %31, %tailrecurse.i
  %.tr19.i = phi i64 [ %58, %tailrecurse.i ], [ %.175, %31 ]
  %accumulator.tr18.i = phi i32 [ %59, %tailrecurse.i ], [ 0, %31 ]
  %33 = icmp ult i64 %.tr19.i, 100
  br i1 %33, label %digits10.exit, label %34

34:                                               ; preds = %.lr.ph.i
  %35 = icmp ult i64 %.tr19.i, 1000
  br i1 %35, label %digits10.exit, label %36

36:                                               ; preds = %34
  %37 = icmp ult i64 %.tr19.i, 1000000000000
  br i1 %37, label %38, label %tailrecurse.i

38:                                               ; preds = %36
  %39 = icmp samesign ult i64 %.tr19.i, 100000000
  br i1 %39, label %40, label %50

40:                                               ; preds = %38
  %41 = icmp samesign ult i64 %.tr19.i, 1000000
  br i1 %41, label %42, label %47

42:                                               ; preds = %40
  %43 = icmp samesign ult i64 %.tr19.i, 10000
  br i1 %43, label %digits10.exit, label %44

44:                                               ; preds = %42
  %45 = icmp samesign ugt i64 %.tr19.i, 99999
  %46 = select i1 %45, i32 6, i32 5
  br label %digits10.exit

47:                                               ; preds = %40
  %48 = icmp samesign ugt i64 %.tr19.i, 9999999
  %49 = select i1 %48, i32 8, i32 7
  br label %digits10.exit

50:                                               ; preds = %38
  %51 = icmp samesign ult i64 %.tr19.i, 10000000000
  br i1 %51, label %52, label %55

52:                                               ; preds = %50
  %53 = icmp samesign ugt i64 %.tr19.i, 999999999
  %54 = select i1 %53, i32 10, i32 9
  br label %digits10.exit

55:                                               ; preds = %50
  %56 = icmp samesign ugt i64 %.tr19.i, 99999999999
  %57 = select i1 %56, i32 12, i32 11
  br label %digits10.exit

tailrecurse.i:                                    ; preds = %36
  %58 = udiv i64 %.tr19.i, 1000000000000
  %59 = add i32 %accumulator.tr18.i, 12
  %60 = icmp ult i64 %.tr19.i, 10000000000000
  br i1 %60, label %digits10.exit, label %.lr.ph.i

digits10.exit:                                    ; preds = %.lr.ph.i, %34, %tailrecurse.i, %31, %42, %44, %47, %52, %55
  %accumulator.tr17.i = phi i32 [ %accumulator.tr18.i, %44 ], [ %accumulator.tr18.i, %47 ], [ %accumulator.tr18.i, %52 ], [ %accumulator.tr18.i, %55 ], [ %accumulator.tr18.i, %42 ], [ 0, %31 ], [ %accumulator.tr18.i, %34 ], [ %accumulator.tr18.i, %.lr.ph.i ], [ %59, %tailrecurse.i ]
  %.0.i = phi i32 [ %46, %44 ], [ %49, %47 ], [ %54, %52 ], [ %57, %55 ], [ 4, %42 ], [ 1, %31 ], [ 3, %34 ], [ 2, %.lr.ph.i ], [ 1, %tailrecurse.i ]
  %accumulator.ret.tr.i = add i32 %.0.i, %accumulator.tr17.i
  %61 = zext i32 %accumulator.ret.tr.i to i64
  %.not86 = icmp ugt i64 %.172, %61
  br i1 %.not86, label %62, label %114

62:                                               ; preds = %digits10.exit
  %63 = sub i32 %accumulator.ret.tr.i, %3
  %64 = icmp slt i32 %63, 1
  br i1 %64, label %65, label %66

65:                                               ; preds = %62
  store i8 48, ptr %.1, align 1, !tbaa !9
  br label %66

66:                                               ; preds = %65, %62
  %.073 = phi i32 [ 1, %65 ], [ %63, %62 ]
  %67 = zext nneg i32 %.073 to i64
  %68 = getelementptr inbounds nuw i8, ptr %.1, i64 %67
  store i8 46, ptr %68, align 1, !tbaa !9
  %69 = add nuw nsw i32 %3, 1
  %70 = add nuw nsw i32 %69, %.073
  %71 = getelementptr inbounds nuw i8, ptr %68, i64 1
  tail call void @llvm.memset.p0.i64(ptr nonnull align 1 %71, i8 48, i64 %19, i1 false)
  %72 = add nuw i32 %.073, %3
  %73 = icmp ugt i64 %.175, 99
  br i1 %73, label %.lr.ph, label %._crit_edge

.lr.ph:                                           ; preds = %66, %.lr.ph
  %.06994 = phi i32 [ %spec.select, %.lr.ph ], [ %72, %66 ]
  %.293 = phi i64 [ %76, %.lr.ph ], [ %.175, %66 ]
  %74 = urem i64 %.293, 100
  %.tr = trunc nuw nsw i64 %74 to i32
  %75 = shl nuw nsw i32 %.tr, 1
  %76 = udiv i64 %.293, 100
  %77 = or disjoint i32 %75, 1
  %78 = zext nneg i32 %77 to i64
  %79 = getelementptr inbounds nuw [201 x i8], ptr @fixedpoint_d2string.digitsd, i64 0, i64 %78
  %80 = load i8, ptr %79, align 1, !tbaa !9
  %81 = sext i32 %.06994 to i64
  %82 = getelementptr inbounds i8, ptr %.1, i64 %81
  store i8 %80, ptr %82, align 1, !tbaa !9
  %83 = zext nneg i32 %75 to i64
  %84 = getelementptr inbounds nuw [201 x i8], ptr @fixedpoint_d2string.digitsd, i64 0, i64 %83
  %85 = load i8, ptr %84, align 2, !tbaa !9
  %86 = getelementptr i8, ptr %82, i64 -1
  store i8 %85, ptr %86, align 1, !tbaa !9
  %87 = add nsw i32 %.06994, -2
  %88 = icmp eq i32 %87, %.073
  %89 = add nsw i32 %.06994, -3
  %spec.select = select i1 %88, i32 %89, i32 %87
  %90 = icmp ugt i64 %.293, 9999
  br i1 %90, label %.lr.ph, label %._crit_edge, !llvm.loop !44

._crit_edge:                                      ; preds = %.lr.ph, %66
  %.2.lcssa = phi i64 [ %.175, %66 ], [ %76, %.lr.ph ]
  %.069.lcssa = phi i32 [ %72, %66 ], [ %spec.select, %.lr.ph ]
  %91 = icmp samesign ult i64 %.2.lcssa, 10
  br i1 %91, label %92, label %97

92:                                               ; preds = %._crit_edge
  %93 = trunc nuw i64 %.2.lcssa to i8
  %94 = or disjoint i8 %93, 48
  %95 = sext i32 %.069.lcssa to i64
  %96 = getelementptr inbounds i8, ptr %.1, i64 %95
  store i8 %94, ptr %96, align 1, !tbaa !9
  br label %110

97:                                               ; preds = %._crit_edge
  %98 = trunc nuw nsw i64 %.2.lcssa to i32
  %99 = shl nuw nsw i32 %98, 1
  %100 = or disjoint i32 %99, 1
  %101 = zext nneg i32 %100 to i64
  %102 = getelementptr inbounds nuw [201 x i8], ptr @fixedpoint_d2string.digitsd, i64 0, i64 %101
  %103 = load i8, ptr %102, align 1, !tbaa !9
  %104 = sext i32 %.069.lcssa to i64
  %105 = getelementptr inbounds i8, ptr %.1, i64 %104
  store i8 %103, ptr %105, align 1, !tbaa !9
  %106 = zext nneg i32 %99 to i64
  %107 = getelementptr inbounds nuw [201 x i8], ptr @fixedpoint_d2string.digitsd, i64 0, i64 %106
  %108 = load i8, ptr %107, align 2, !tbaa !9
  %109 = getelementptr i8, ptr %105, i64 -1
  store i8 %108, ptr %109, align 1, !tbaa !9
  br label %110

110:                                              ; preds = %97, %92
  %111 = zext nneg i32 %70 to i64
  %112 = getelementptr inbounds nuw i8, ptr %.1, i64 %111
  store i8 0, ptr %112, align 1, !tbaa !9
  %113 = add nuw nsw i32 %70, %.076
  br label %116

114:                                              ; preds = %digits10.exit, %25, %4
  %.071 = phi i64 [ %1, %4 ], [ %1, %25 ], [ %.172, %digits10.exit ]
  %.068 = phi ptr [ %0, %4 ], [ %0, %25 ], [ %.1, %digits10.exit ]
  %.not87 = icmp eq i64 %.071, 0
  br i1 %.not87, label %116, label %115

115:                                              ; preds = %114
  store i8 0, ptr %.068, align 1, !tbaa !9
  br label %116

116:                                              ; preds = %114, %115, %110, %11
  %.0 = phi i32 [ %15, %11 ], [ %113, %110 ], [ 0, %115 ], [ 0, %114 ]
  ret i32 %.0
}